target datalayout = "e-m:e-p270:32:32-p271:32:32-p272:64:64-i64:64-i128:128-f80:128-n8:16:32:64-S128"
target triple = "x86_64-pc-linux-gnu"

%struct.hsts = type { %struct.Curl_llist, ptr, i32 }
%struct.Curl_llist = type { ptr, ptr, ptr, i64 }
%struct.stsentry = type { %struct.Curl_llist_node, ptr, i8, i64 }
%struct.Curl_llist_node = type { ptr, ptr, ptr, ptr }

@Curl_cfree = external global ptr, align 8

; Function Attrs: nounwind uwtable
define internal void @hsts_free(ptr noundef %0) #0 {
  %2 = alloca ptr, align 8
  store ptr %0, ptr %2, align 8, !tbaa !13
  %3 = load ptr, ptr @Curl_cfree, align 8, !tbaa !3
  %4 = load ptr, ptr %2, align 8, !tbaa !13
  %5 = getelementptr inbounds nuw %struct.stsentry, ptr %4, i32 0, i32 1
  %6 = load ptr, ptr %5, align 8, !tbaa !23
  call void %3(ptr noundef %6)
  %7 = load ptr, ptr @Curl_cfree, align 8, !tbaa !3
  %8 = load ptr, ptr %2, align 8, !tbaa !13
  call void %7(ptr noundef %8)
  ret void
}

; Function Attrs: nounwind uwtable
define hidden ptr @Curl_hsts(ptr noundef %0, ptr noundef %1, i64 noundef %2, i1 noundef zeroext %3) #0 {
  %5 = alloca ptr, align 8
  %6 = alloca ptr, align 8
  %7 = alloca ptr, align 8
  %8 = alloca i64, align 8
  %9 = alloca i8, align 1
  %10 = alloca ptr, align 8
  %11 = alloca i64, align 8
  %12 = alloca ptr, align 8
  %13 = alloca ptr, align 8
  %14 = alloca i64, align 8
  %15 = alloca i32, align 4
  %16 = alloca ptr, align 8
  %17 = alloca i64, align 8
  %18 = alloca i64, align 8
  store ptr %0, ptr %6, align 8, !tbaa !7
  store ptr %1, ptr %7, align 8, !tbaa !28
  store i64 %2, ptr %8, align 8, !tbaa !29
  %19 = zext i1 %3 to i8
  store i8 %19, ptr %9, align 1, !tbaa !30
  call void @llvm.lifetime.start.p0(i64 8, ptr %10) #6
  store ptr null, ptr %10, align 8, !tbaa !13
  %20 = load ptr, ptr %6, align 8, !tbaa !7
  %21 = icmp ne ptr %20, null
  br i1 %21, label %22, label %131

22:                                               ; preds = %4
  call void @llvm.lifetime.start.p0(i64 8, ptr %11) #6
  %23 = call i64 @time(ptr noundef null) #6
  store i64 %23, ptr %11, align 8, !tbaa !29
  call void @llvm.lifetime.start.p0(i64 8, ptr %12) #6
  call void @llvm.lifetime.start.p0(i64 8, ptr %13) #6
  call void @llvm.lifetime.start.p0(i64 8, ptr %14) #6
  store i64 0, ptr %14, align 8, !tbaa !29
  %24 = load i64, ptr %8, align 8, !tbaa !29
  %25 = icmp ugt i64 %24, 2048
  br i1 %25, label %29, label %26

26:                                               ; preds = %22
  %27 = load i64, ptr %8, align 8, !tbaa !29
  %28 = icmp ne i64 %27, 0
  br i1 %28, label %30, label %29

29:                                               ; preds = %26, %22
  store ptr null, ptr %5, align 8
  store i32 1, ptr %15, align 4
  br label %128

30:                                               ; preds = %26
  %31 = load ptr, ptr %7, align 8, !tbaa !28
  %32 = load i64, ptr %8, align 8, !tbaa !29
  %33 = sub i64 %32, 1
  %34 = getelementptr inbounds nuw i8, ptr %31, i64 %33
  %35 = load i8, ptr %34, align 1, !tbaa !31
  %36 = sext i8 %35 to i32
  %37 = icmp eq i32 %36, 46
  br i1 %37, label %38, label %41

38:                                               ; preds = %30
  %39 = load i64, ptr %8, align 8, !tbaa !29
  %40 = add i64 %39, -1
  store i64 %40, ptr %8, align 8, !tbaa !29
  br label %41

41:                                               ; preds = %38, %30
  %42 = load ptr, ptr %6, align 8, !tbaa !7
  %43 = getelementptr inbounds nuw %struct.hsts, ptr %42, i32 0, i32 0
  %44 = call ptr @Curl_llist_head(ptr noundef %43)
  store ptr %44, ptr %12, align 8, !tbaa !11
  br label %45

45:                                               ; preds = %125, %41
  %46 = load ptr, ptr %12, align 8, !tbaa !11
  %47 = icmp ne ptr %46, null
  br i1 %47, label %48, label %127

48:                                               ; preds = %45
  call void @llvm.lifetime.start.p0(i64 8, ptr %16) #6
  %49 = load ptr, ptr %12, align 8, !tbaa !11
  %50 = call ptr @Curl_node_elem(ptr noundef %49)
  store ptr %50, ptr %16, align 8, !tbaa !13
  call void @llvm.lifetime.start.p0(i64 8, ptr %17) #6
  %51 = load ptr, ptr %12, align 8, !tbaa !11
  %52 = call ptr @Curl_node_next(ptr noundef %51)
  store ptr %52, ptr %13, align 8, !tbaa !11
  %53 = load ptr, ptr %16, align 8, !tbaa !13
  %54 = getelementptr inbounds nuw %struct.stsentry, ptr %53, i32 0, i32 3
  %55 = load i64, ptr %54, align 8, !tbaa !41
  %56 = load i64, ptr %11, align 8, !tbaa !29
  %57 = icmp sle i64 %55, %56
  br i1 %57, label %58, label %62

58:                                               ; preds = %48
  %59 = load ptr, ptr %16, align 8, !tbaa !13
  %60 = getelementptr inbounds nuw %struct.stsentry, ptr %59, i32 0, i32 0
  call void @Curl_node_remove(ptr noundef %60)
  %61 = load ptr, ptr %16, align 8, !tbaa !13
  call void @hsts_free(ptr noundef %61)
  store i32 4, ptr %15, align 4
  br label %122

62:                                               ; preds = %48
  %63 = load ptr, ptr %16, align 8, !tbaa !13
  %64 = getelementptr inbounds nuw %struct.stsentry, ptr %63, i32 0, i32 1
  %65 = load ptr, ptr %64, align 8, !tbaa !23
  %66 = call i64 @strlen(ptr noundef %65) #7
  store i64 %66, ptr %17, align 8, !tbaa !29
  %67 = load i8, ptr %9, align 1, !tbaa !30, !range !33, !noundef !34
  %68 = trunc i8 %67 to i1
  br i1 %68, label %69, label %107

69:                                               ; preds = %62
  %70 = load ptr, ptr %16, align 8, !tbaa !13
  %71 = getelementptr inbounds nuw %struct.stsentry, ptr %70, i32 0, i32 2
  %72 = load i8, ptr %71, align 8, !tbaa !42, !range !33, !noundef !34
  %73 = trunc i8 %72 to i1
  br i1 %73, label %74, label %107

74:                                               ; preds = %69
  %75 = load i64, ptr %17, align 8, !tbaa !29
  %76 = load i64, ptr %8, align 8, !tbaa !29
  %77 = icmp ult i64 %75, %76
  br i1 %77, label %78, label %107

78:                                               ; preds = %74
  call void @llvm.lifetime.start.p0(i64 8, ptr %18) #6
  %79 = load i64, ptr %8, align 8, !tbaa !29
  %80 = load i64, ptr %17, align 8, !tbaa !29
  %81 = sub i64 %79, %80
  store i64 %81, ptr %18, align 8, !tbaa !29
  %82 = load ptr, ptr %7, align 8, !tbaa !28
  %83 = load i64, ptr %18, align 8, !tbaa !29
  %84 = sub i64 %83, 1
  %85 = getelementptr inbounds nuw i8, ptr %82, i64 %84
  %86 = load i8, ptr %85, align 1, !tbaa !31
  %87 = sext i8 %86 to i32
  %88 = icmp eq i32 %87, 46
  br i1 %88, label %89, label %106

89:                                               ; preds = %78
  %90 = load ptr, ptr %7, align 8, !tbaa !28
  %91 = load i64, ptr %18, align 8, !tbaa !29
  %92 = getelementptr inbounds nuw i8, ptr %90, i64 %91
  %93 = load ptr, ptr %16, align 8, !tbaa !13
  %94 = getelementptr inbounds nuw %struct.stsentry, ptr %93, i32 0, i32 1
  %95 = load ptr, ptr %94, align 8, !tbaa !23
  %96 = load i64, ptr %17, align 8, !tbaa !29
  %97 = call i32 @curl_strnequal(ptr noundef %92, ptr noundef %95, i64 noundef %96)
  %98 = icmp ne i32 %97, 0
  br i1 %98, label %99, label %106

99:                                               ; preds = %89
  %100 = load i64, ptr %17, align 8, !tbaa !29
  %101 = load i64, ptr %14, align 8, !tbaa !29
  %102 = icmp ugt i64 %100, %101
  br i1 %102, label %103, label %106

103:                                              ; preds = %99
  %104 = load ptr, ptr %16, align 8, !tbaa !13
  store ptr %104, ptr %10, align 8, !tbaa !13
  %105 = load i64, ptr %17, align 8, !tbaa !29
  store i64 %105, ptr %14, align 8, !tbaa !29
  br label %106

106:                                              ; preds = %103, %99, %89, %78
  call void @llvm.lifetime.end.p0(i64 8, ptr %18) #6
  br label %107

107:                                              ; preds = %106, %74, %69, %62
  %108 = load i64, ptr %8, align 8, !tbaa !29
  %109 = load i64, ptr %17, align 8, !tbaa !29
  %110 = icmp eq i64 %108, %109
  br i1 %110, label %111, label %121

111:                                              ; preds = %107
  %112 = load ptr, ptr %7, align 8, !tbaa !28
  %113 = load ptr, ptr %16, align 8, !tbaa !13
  %114 = getelementptr inbounds nuw %struct.stsentry, ptr %113, i32 0, i32 1
  %115 = load ptr, ptr %114, align 8, !tbaa !23
  %116 = load i64, ptr %8, align 8, !tbaa !29
  %117 = call i32 @curl_strnequal(ptr noundef %112, ptr noundef %115, i64 noundef %116)
  %118 = icmp ne i32 %117, 0
  br i1 %118, label %119, label %121

119:                                              ; preds = %111
  %120 = load ptr, ptr %16, align 8, !tbaa !13
  store ptr %120, ptr %5, align 8
  store i32 1, ptr %15, align 4
  br label %122

121:                                              ; preds = %111, %107
  store i32 0, ptr %15, align 4
  br label %122

122:                                              ; preds = %121, %119, %58
  call void @llvm.lifetime.end.p0(i64 8, ptr %17) #6
  call void @llvm.lifetime.end.p0(i64 8, ptr %16) #6
  %123 = load i32, ptr %15, align 4
  switch i32 %123, label %128 [
    i32 0, label %124
    i32 4, label %125
  ]

124:                                              ; preds = %122
  br label %125

125:                                              ; preds = %124, %122
  %126 = load ptr, ptr %13, align 8, !tbaa !11
  store ptr %126, ptr %12, align 8, !tbaa !11
  br label %45, !llvm.loop !43

127:                                              ; preds = %45
  store i32 0, ptr %15, align 4
  br label %128

128:                                              ; preds = %127, %122, %29
  call void @llvm.lifetime.end.p0(i64 8, ptr %14) #6
  call void @llvm.lifetime.end.p0(i64 8, ptr %13) #6
  call void @llvm.lifetime.end.p0(i64 8, ptr %12) #6
  call void @llvm.lifetime.end.p0(i64 8, ptr %11) #6
  %129 = load i32, ptr %15, align 4
  switch i32 %129, label %133 [
    i32 0, label %130
  ]

130:                                              ; preds = %128
  br label %131

131:                                              ; preds = %130, %4
  %132 = load ptr, ptr %10, align 8, !tbaa !13
  store ptr %132, ptr %5, align 8
  store i32 1, ptr %15, align 4
  br label %133

133:                                              ; preds = %131, %128
  call void @llvm.lifetime.end.p0(i64 8, ptr %10) #6
  %134 = load ptr, ptr %5, align 8
  ret ptr %134
}