; Function Attrs: nounwind uwtable
define hidden ptr @Curl_hsts(ptr noundef %0, ptr noundef %1, i64 noundef %2, i1 noundef zeroext %3) local_unnamed_addr #0 {
  %.not = icmp eq ptr %0, null
  br i1 %.not, label %.thread74, label %5

5:                                                ; preds = %4
  %6 = tail call i64 @time(ptr noundef null) #9
  %7 = add i64 %2, -1
  %or.cond = icmp ult i64 %7, 2048
  br i1 %or.cond, label %8, label %.thread74

8:                                                ; preds = %5
  %9 = getelementptr i8, ptr %1, i64 %2
  %10 = getelementptr i8, ptr %9, i64 -1
  %11 = load i8, ptr %10, align 1, !tbaa !24
  %12 = icmp eq i8 %11, 46
  %spec.select = select i1 %12, i64 %7, i64 %2
  %13 = tail call ptr @Curl_llist_head(ptr noundef nonnull %0) #9
  %.not5779 = icmp eq ptr %13, null
  br i1 %.not5779, label %.thread74, label %.lr.ph

.lr.ph:                                           ; preds = %8
  br i1 %3, label %.lr.ph.split.us, label %.lr.ph.split

.lr.ph.split.us:                                  ; preds = %.lr.ph, %45
  %.24582.us = phi ptr [ %.346.ph.us, %45 ], [ null, %.lr.ph ]
  %.04981.us = phi i64 [ %.150.ph.us, %45 ], [ 0, %.lr.ph ]
  %.05380.us = phi ptr [ %15, %45 ], [ %13, %.lr.ph ]
  %14 = tail call ptr @Curl_node_elem(ptr noundef nonnull %.05380.us) #9
  %15 = tail call ptr @Curl_node_next(ptr noundef nonnull %.05380.us) #9
  %16 = getelementptr inbounds nuw i8, ptr %14, i64 48
  %17 = load i64, ptr %16, align 8, !tbaa !32
  %.not58.us = icmp sgt i64 %17, %6
  br i1 %.not58.us, label %23, label %18

18:                                               ; preds = %.lr.ph.split.us
  tail call void @Curl_node_remove(ptr noundef nonnull %14) #9
  %19 = load ptr, ptr @Curl_cfree, align 8, !tbaa !3
  %20 = getelementptr inbounds nuw i8, ptr %14, i64 32
  %21 = load ptr, ptr %20, align 8, !tbaa !9
  tail call void %19(ptr noundef %21) #9
  %22 = load ptr, ptr @Curl_cfree, align 8, !tbaa !3
  tail call void %22(ptr noundef nonnull %14) #9
  br label %45

23:                                               ; preds = %.lr.ph.split.us
  %24 = getelementptr inbounds nuw i8, ptr %14, i64 32
  %25 = load ptr, ptr %24, align 8, !tbaa !9
  %26 = tail call i64 @strlen(ptr noundef nonnull dereferenceable(1) %25) #10
  %27 = getelementptr inbounds nuw i8, ptr %14, i64 40
  %28 = load i8, ptr %27, align 8, !tbaa !33, !range !34, !noundef !35
  %29 = trunc nuw i8 %28 to i1
  %30 = icmp ult i64 %26, %spec.select
  %or.cond61.us = select i1 %29, i1 %30, i1 false
  br i1 %or.cond61.us, label %31, label %40

31:                                               ; preds = %23
  %32 = sub nuw nsw i64 %spec.select, %26
  %33 = getelementptr i8, ptr %1, i64 %32
  %34 = getelementptr i8, ptr %33, i64 -1
  %35 = load i8, ptr %34, align 1, !tbaa !24
  %36 = icmp eq i8 %35, 46
  br i1 %36, label %37, label %40

37:                                               ; preds = %31
  %38 = tail call i32 @curl_strnequal(ptr noundef %33, ptr noundef nonnull %25, i64 noundef %26) #9
  %.not59.us = icmp ne i32 %38, 0
  %39 = icmp ugt i64 %26, %.04981.us
  %or.cond62.us = select i1 %.not59.us, i1 %39, i1 false
  %spec.select63.us = select i1 %or.cond62.us, i64 %26, i64 %.04981.us
  %spec.select64.us = select i1 %or.cond62.us, ptr %14, ptr %.24582.us
  br label %40

40:                                               ; preds = %37, %31, %23
  %.251.us = phi i64 [ %.04981.us, %23 ], [ %.04981.us, %31 ], [ %spec.select63.us, %37 ]
  %.4.us = phi ptr [ %.24582.us, %23 ], [ %.24582.us, %31 ], [ %spec.select64.us, %37 ]
  %41 = icmp eq i64 %spec.select, %26
  br i1 %41, label %42, label %45

42:                                               ; preds = %40
  %43 = load ptr, ptr %24, align 8, !tbaa !9
  %44 = tail call i32 @curl_strnequal(ptr noundef %1, ptr noundef %43, i64 noundef %spec.select) #9
  %.not60.us = icmp eq i32 %44, 0
  br i1 %.not60.us, label %45, label %.thread74

45:                                               ; preds = %42, %40, %18
  %.150.ph.us = phi i64 [ %.04981.us, %18 ], [ %.251.us, %42 ], [ %.251.us, %40 ]
  %.346.ph.us = phi ptr [ %.24582.us, %18 ], [ %.4.us, %42 ], [ %.4.us, %40 ]
  %.not57.us = icmp eq ptr %15, null
  br i1 %.not57.us, label %.thread74, label %.lr.ph.split.us, !llvm.loop !36

.lr.ph.split:                                     ; preds = %.lr.ph, %62
  %.05380 = phi ptr [ %47, %62 ], [ %13, %.lr.ph ]
  %46 = tail call ptr @Curl_node_elem(ptr noundef nonnull %.05380) #9
  %47 = tail call ptr @Curl_node_next(ptr noundef nonnull %.05380) #9
  %48 = getelementptr inbounds nuw i8, ptr %46, i64 48
  %49 = load i64, ptr %48, align 8, !tbaa !32
  %.not58 = icmp sgt i64 %49, %6
  br i1 %.not58, label %55, label %50

50:                                               ; preds = %.lr.ph.split
  tail call void @Curl_node_remove(ptr noundef nonnull %46) #9
  %51 = load ptr, ptr @Curl_cfree, align 8, !tbaa !3
  %52 = getelementptr inbounds nuw i8, ptr %46, i64 32
  %53 = load ptr, ptr %52, align 8, !tbaa !9
  tail call void %51(ptr noundef %53) #9
  %54 = load ptr, ptr @Curl_cfree, align 8, !tbaa !3
  tail call void %54(ptr noundef nonnull %46) #9
  br label %62

55:                                               ; preds = %.lr.ph.split
  %56 = getelementptr inbounds nuw i8, ptr %46, i64 32
  %57 = load ptr, ptr %56, align 8, !tbaa !9
  %58 = tail call i64 @strlen(ptr noundef nonnull dereferenceable(1) %57) #10
  %59 = icmp eq i64 %spec.select, %58
  br i1 %59, label %60, label %62

60:                                               ; preds = %55
  %61 = tail call i32 @curl_strnequal(ptr noundef %1, ptr noundef nonnull %57, i64 noundef %spec.select) #9
  %.not60 = icmp eq i32 %61, 0
  br i1 %.not60, label %62, label %.thread74

62:                                               ; preds = %55, %60, %50
  %.not57 = icmp eq ptr %47, null
  br i1 %.not57, label %.thread74, label %.lr.ph.split, !llvm.loop !36

.thread74:                                        ; preds = %62, %60, %45, %42, %8, %5, %4
  %.3 = phi ptr [ null, %4 ], [ null, %5 ], [ null, %8 ], [ %.346.ph.us, %45 ], [ %14, %42 ], [ null, %62 ], [ %46, %60 ]
  ret ptr %.3
}